; Function Attrs: mustprogress nofree nounwind null_pointer_is_valid sspstrong willreturn memory(read, inaccessiblemem: none) uwtable
define internal i32 @xmpp_element_t_cmp(ptr noundef readonly captures(none) %0, ptr noundef readonly captures(none) %1) #8 {
  %3 = load ptr, ptr %0, align 8
  %4 = load ptr, ptr %1, align 8
  %5 = tail call i32 @strcmp(ptr noundef %3, ptr noundef %4) #11
  %6 = icmp eq i32 %5, 0
  br i1 %6, label %7, label %11

7:                                                ; preds = %2
  %8 = getelementptr inbounds nuw i8, ptr %0, i64 56
  %9 = load i8, ptr %8, align 8, !range !6, !noundef !7
  %10 = zext nneg i8 %9 to i32
  %spec.select = sub nsw i32 0, %10
  br label %11

11:                                               ; preds = %7, %2
  %.0 = phi i32 [ %5, %2 ], [ %spec.select, %7 ]
  ret i32 %.0
}